; Function Attrs: mustprogress uwtable
define hidden noundef zeroext i1 @_ZN4cvc58internal6theory9datatypes5utils25isNullaryApplyConstructorENS0_12NodeTemplateILb1EEE(ptr noundef readonly captures(none) %0) local_unnamed_addr #3 personality ptr @__gxx_personality_v0 {
  %2 = alloca %"class.cvc5::internal::NodeTemplate", align 8
  %3 = alloca %"class.cvc5::internal::TypeNode", align 8
  %4 = load ptr, ptr %0, align 8, !tbaa !11
  %5 = getelementptr inbounds nuw i8, ptr %4, i64 8
  %6 = load i64, ptr %5, align 8
  %7 = trunc i64 %6 to i32
  %8 = and i32 %7, 1023
  %9 = icmp eq i32 %8, 1023
  %10 = select i1 %9, i32 -1, i32 %8
  %11 = tail call noundef i32 @_ZN4cvc58internal4kind10metaKindOfENS1_6Kind_tE(i32 noundef %10)
  %12 = icmp eq i32 %11, 2
  %spec.select.v.i.i = select i1 %12, i64 32, i64 24
  %spec.select.i.i = getelementptr inbounds nuw i8, ptr %4, i64 %spec.select.v.i.i
  %13 = load ptr, ptr %0, align 8, !tbaa !11
  %14 = getelementptr inbounds nuw i8, ptr %13, i64 24
  %15 = getelementptr inbounds nuw i8, ptr %13, i64 8
  %16 = load i64, ptr %15, align 8
  %17 = lshr i64 %16, 32
  %18 = and i64 %17, 67108863
  %19 = getelementptr inbounds nuw ptr, ptr %14, i64 %18
  %.not20 = icmp eq ptr %spec.select.i.i, %19
  br i1 %.not20, label %._crit_edge, label %.lr.ph

.lr.ph:                                           ; preds = %1, %_ZN4cvc58internal12NodeTemplateILb1EED2Ev.exit
  %.sroa.013.021 = phi ptr [ %64, %_ZN4cvc58internal12NodeTemplateILb1EED2Ev.exit ], [ %spec.select.i.i, %1 ]
  call void @llvm.lifetime.start.p0(i64 8, ptr nonnull %2) #22
  call void @llvm.experimental.noalias.scope.decl(metadata !63)
  %20 = load ptr, ptr %.sroa.013.021, align 8, !tbaa !24, !noalias !63
  store ptr %20, ptr %2, align 8, !tbaa !11, !alias.scope !63
  %21 = load i64, ptr %20, align 8, !noalias !63
  %22 = lshr i64 %21, 40
  %23 = trunc nuw nsw i64 %22 to i32
  %24 = and i32 %23, 1048575
  %25 = icmp samesign ult i32 %24, 1048574
  br i1 %25, label %26, label %31, !prof !9

26:                                               ; preds = %.lr.ph
  %27 = add i64 %21, 1099511627776
  %28 = and i64 %27, 1152920405095219200
  %29 = and i64 %21, -1152920405095219201
  %30 = or disjoint i64 %28, %29
  store i64 %30, ptr %20, align 8, !noalias !63
  br label %_ZNK4cvc58internal4expr9NodeValue8iteratorINS0_12NodeTemplateILb1EEEEdeEv.exit

31:                                               ; preds = %.lr.ph
  %32 = icmp eq i32 %24, 1048574
  br i1 %32, label %33, label %_ZNK4cvc58internal4expr9NodeValue8iteratorINS0_12NodeTemplateILb1EEEEdeEv.exit, !prof !10

33:                                               ; preds = %31
  %34 = or i64 %21, 1152920405095219200
  store i64 %34, ptr %20, align 8, !noalias !63
  call void @_ZN4cvc58internal4expr9NodeValue20markRefCountMaxedOutEv(ptr noundef nonnull align 8 dereferenceable(24) %20), !noalias !63
  br label %_ZNK4cvc58internal4expr9NodeValue8iteratorINS0_12NodeTemplateILb1EEEEdeEv.exit

_ZNK4cvc58internal4expr9NodeValue8iteratorINS0_12NodeTemplateILb1EEEEdeEv.exit: ; preds = %26, %31, %33
  call void @llvm.lifetime.start.p0(i64 8, ptr nonnull %3) #22
  invoke void @_ZNK4cvc58internal12NodeTemplateILb1EE7getTypeEb(ptr dead_on_unwind nonnull writable sret(%"class.cvc5::internal::TypeNode") align 8 %3, ptr noundef nonnull align 8 dereferenceable(8) %2, i1 noundef zeroext false)
          to label %35 unwind label %65

35:                                               ; preds = %_ZNK4cvc58internal4expr9NodeValue8iteratorINS0_12NodeTemplateILb1EEEEdeEv.exit
  %36 = invoke noundef zeroext i1 @_ZNK4cvc58internal8TypeNode10isDatatypeEv(ptr noundef nonnull align 8 dereferenceable(8) %3)
          to label %37 unwind label %67

37:                                               ; preds = %35
  %38 = load ptr, ptr %3, align 8, !tbaa !3
  %39 = load i64, ptr %38, align 8
  %40 = and i64 %39, 1152920405095219200
  %.not.i.i = icmp eq i64 %40, 1152920405095219200
  br i1 %.not.i.i, label %_ZN4cvc58internal8TypeNodeD2Ev.exit, label %41, !prof !10

41:                                               ; preds = %37
  %42 = add i64 %39, 1152920405095219200
  %43 = and i64 %42, 1152920405095219200
  %44 = and i64 %39, -1152920405095219201
  %45 = or disjoint i64 %43, %44
  store i64 %45, ptr %38, align 8
  %46 = icmp eq i64 %43, 0
  br i1 %46, label %47, label %_ZN4cvc58internal8TypeNodeD2Ev.exit, !prof !10

47:                                               ; preds = %41
  invoke void @_ZN4cvc58internal4expr9NodeValue15markForDeletionEv(ptr noundef nonnull align 8 dereferenceable(24) %38)
          to label %_ZN4cvc58internal8TypeNodeD2Ev.exit unwind label %48

48:                                               ; preds = %47
  %49 = landingpad { ptr, i32 }
          catch ptr null
  %50 = extractvalue { ptr, i32 } %49, 0
  call void @__clang_call_terminate(ptr %50) #21
  unreachable

_ZN4cvc58internal8TypeNodeD2Ev.exit:              ; preds = %37, %41, %47
  call void @llvm.lifetime.end.p0(i64 8, ptr nonnull %3) #22
  %51 = load ptr, ptr %2, align 8, !tbaa !11
  %52 = load i64, ptr %51, align 8
  %53 = and i64 %52, 1152920405095219200
  %.not.i.i12 = icmp eq i64 %53, 1152920405095219200
  br i1 %.not.i.i12, label %_ZN4cvc58internal12NodeTemplateILb1EED2Ev.exit, label %54, !prof !10

54:                                               ; preds = %_ZN4cvc58internal8TypeNodeD2Ev.exit
  %55 = add i64 %52, 1152920405095219200
  %56 = and i64 %55, 1152920405095219200
  %57 = and i64 %52, -1152920405095219201
  %58 = or disjoint i64 %56, %57
  store i64 %58, ptr %51, align 8
  %59 = icmp eq i64 %56, 0
  br i1 %59, label %60, label %_ZN4cvc58internal12NodeTemplateILb1EED2Ev.exit, !prof !10

60:                                               ; preds = %54
  invoke void @_ZN4cvc58internal4expr9NodeValue15markForDeletionEv(ptr noundef nonnull align 8 dereferenceable(24) %51)
          to label %_ZN4cvc58internal12NodeTemplateILb1EED2Ev.exit unwind label %61

61:                                               ; preds = %60
  %62 = landingpad { ptr, i32 }
          catch ptr null
  %63 = extractvalue { ptr, i32 } %62, 0
  call void @__clang_call_terminate(ptr %63) #21
  unreachable

_ZN4cvc58internal12NodeTemplateILb1EED2Ev.exit:   ; preds = %_ZN4cvc58internal8TypeNodeD2Ev.exit, %54, %60
  call void @llvm.lifetime.end.p0(i64 8, ptr nonnull %2) #22
  %64 = getelementptr inbounds nuw i8, ptr %.sroa.013.021, i64 8
  %.not = icmp eq ptr %64, %19
  %or.cond = select i1 %36, i1 true, i1 %.not
  br i1 %or.cond, label %._crit_edge.loopexit, label %.lr.ph

65:                                               ; preds = %_ZNK4cvc58internal4expr9NodeValue8iteratorINS0_12NodeTemplateILb1EEEEdeEv.exit
  %66 = landingpad { ptr, i32 }
          cleanup
  br label %69

67:                                               ; preds = %35
  %68 = landingpad { ptr, i32 }
          cleanup
  call void @_ZN4cvc58internal8TypeNodeD2Ev(ptr noundef nonnull align 8 dereferenceable(8) %3) #22
  br label %69

69:                                               ; preds = %67, %65
  %.pn = phi { ptr, i32 } [ %68, %67 ], [ %66, %65 ]
  call void @llvm.lifetime.end.p0(i64 8, ptr nonnull %3) #22
  call void @_ZN4cvc58internal12NodeTemplateILb1EED2Ev(ptr noundef nonnull align 8 dereferenceable(8) %2) #22
  call void @llvm.lifetime.end.p0(i64 8, ptr nonnull %2) #22
  resume { ptr, i32 } %.pn

._crit_edge.loopexit:                             ; preds = %_ZN4cvc58internal12NodeTemplateILb1EED2Ev.exit
  %.not.lcssa.ph = xor i1 %36, true
  br label %._crit_edge

._crit_edge:                                      ; preds = %._crit_edge.loopexit, %1
  %.not.lcssa = phi i1 [ true, %1 ], [ %.not.lcssa.ph, %._crit_edge.loopexit ]
  ret i1 %.not.lcssa
}